; Function Attrs: mustprogress nounwind willreturn uwtable
define dso_local void @_ZN4Json5Value11CommentInfoD2Ev(ptr nocapture noundef nonnull readonly align 8 dereferenceable(8) %0) unnamed_addr #20 align 2 personality ptr @__gxx_personality_v0 {
  %2 = load ptr, ptr %0, align 8
  %.not = icmp eq ptr %2, null
  br i1 %.not, label %4, label %3

3:                                                ; preds = %1
  tail call void @free(ptr noundef nonnull %2) #39
  br label %4

4:                                                ; preds = %3, %1
  ret void
}